; Function Attrs: mustprogress nounwind uwtable
define void @_ZN6casadi17SerializingStream5resetEv(ptr nocapture noundef nonnull align 8 dereferenceable(73) %0) local_unnamed_addr #4 align 2 personality ptr @__gxx_personality_v0 {
  %2 = getelementptr inbounds i8, ptr %0, i64 16
  %3 = load ptr, ptr %2, align 8
  %.not5.i.i.i = icmp eq ptr %3, null
  br i1 %.not5.i.i.i, label %_ZNSt13unordered_mapIPvxSt4hashIS0_ESt8equal_toIS0_ESaISt4pairIKS0_xEEE5clearEv.exit, label %.lr.ph.i.i.i

.lr.ph.i.i.i:                                     ; preds = %1, %.lr.ph.i.i.i
  %.06.i.i.i = phi ptr [ %4, %.lr.ph.i.i.i ], [ %3, %1 ]
  %4 = load ptr, ptr %.06.i.i.i, align 8
  tail call void @_ZdlPv(ptr noundef nonnull %.06.i.i.i) #22
  %.not.i.i.i = icmp eq ptr %4, null
  br i1 %.not.i.i.i, label %_ZNSt13unordered_mapIPvxSt4hashIS0_ESt8equal_toIS0_ESaISt4pairIKS0_xEEE5clearEv.exit, label %.lr.ph.i.i.i, !llvm.loop !21

_ZNSt13unordered_mapIPvxSt4hashIS0_ESt8equal_toIS0_ESaISt4pairIKS0_xEEE5clearEv.exit: ; preds = %.lr.ph.i.i.i, %1
  %5 = load ptr, ptr %0, align 8
  %6 = getelementptr inbounds i8, ptr %0, i64 8
  %7 = load i64, ptr %6, align 8
  %8 = shl i64 %7, 3
  tail call void @llvm.memset.p0.i64(ptr align 8 %5, i8 0, i64 %8, i1 false)
  tail call void @llvm.memset.p0.i64(ptr noundef nonnull align 8 dereferenceable(16) %2, i8 0, i64 16, i1 false)
  ret void
}